; Function Attrs: nofree norecurse nosync nounwind memory(argmem: readwrite) uwtable
define void @ff_h264_idct_add16intra_8_c(ptr noundef captures(none) %0, ptr noundef readonly captures(none) %1, ptr noundef captures(none) %2, i32 noundef %3, ptr noundef readonly captures(none) %4) local_unnamed_addr #0 {
  %6 = sext i32 %3 to i64
  br label %7

7:                                                ; preds = %5, %ff_h264_idct_dc_add_8_c.exit
  %indvars.iv = phi i64 [ 0, %5 ], [ %indvars.iv.next, %ff_h264_idct_dc_add_8_c.exit ]
  %8 = getelementptr inbounds nuw [51 x i8], ptr @scan8, i64 0, i64 %indvars.iv
  %9 = load i8, ptr %8, align 1, !tbaa !10
  %10 = zext i8 %9 to i64
  %11 = getelementptr inbounds nuw i8, ptr %4, i64 %10
  %12 = load i8, ptr %11, align 1, !tbaa !10
  %.not = icmp eq i8 %12, 0
  br i1 %.not, label %19, label %13

13:                                               ; preds = %7
  %14 = getelementptr inbounds nuw i32, ptr %1, i64 %indvars.iv
  %15 = load i32, ptr %14, align 4, !tbaa !18
  %16 = sext i32 %15 to i64
  %17 = getelementptr inbounds i8, ptr %0, i64 %16
  %.idx = shl nuw nsw i64 %indvars.iv, 5
  %18 = getelementptr inbounds nuw i8, ptr %2, i64 %.idx
  tail call void @ff_h264_idct_add_8_c(ptr noundef %17, ptr noundef %18, i32 noundef %3)
  br label %ff_h264_idct_dc_add_8_c.exit

19:                                               ; preds = %7
  %.idx20 = shl nuw nsw i64 %indvars.iv, 5
  %20 = getelementptr inbounds nuw i8, ptr %2, i64 %.idx20
  %21 = load i16, ptr %20, align 2, !tbaa !4
  %.not17 = icmp eq i16 %21, 0
  br i1 %.not17, label %ff_h264_idct_dc_add_8_c.exit, label %22

22:                                               ; preds = %19
  %23 = getelementptr inbounds nuw i32, ptr %1, i64 %indvars.iv
  %24 = load i32, ptr %23, align 4, !tbaa !18
  %25 = sext i32 %24 to i64
  %26 = getelementptr inbounds i8, ptr %0, i64 %25
  %27 = sext i16 %21 to i32
  %28 = add nsw i32 %27, 32
  %29 = ashr i32 %28, 6
  store i16 0, ptr %20, align 2, !tbaa !4
  br label %.preheader.i

.preheader.i:                                     ; preds = %37, %22
  %.01519.i = phi ptr [ %26, %22 ], [ %38, %37 ]
  %.01618.i = phi i32 [ 0, %22 ], [ %39, %37 ]
  br label %30

30:                                               ; preds = %30, %.preheader.i
  %indvars.iv.i = phi i64 [ 0, %.preheader.i ], [ %indvars.iv.next.i, %30 ]
  %31 = getelementptr inbounds nuw i8, ptr %.01519.i, i64 %indvars.iv.i
  %32 = load i8, ptr %31, align 1, !tbaa !10
  %33 = zext i8 %32 to i32
  %34 = add nsw i32 %29, %33
  %.not.i.i = icmp ult i32 %34, 256
  %isnotneg.i.i = icmp sgt i32 %34, -1
  %35 = sext i1 %isnotneg.i.i to i8
  %36 = trunc nuw i32 %34 to i8
  %.0.i.i = select i1 %.not.i.i, i8 %36, i8 %35
  store i8 %.0.i.i, ptr %31, align 1, !tbaa !10
  %indvars.iv.next.i = add nuw nsw i64 %indvars.iv.i, 1
  %exitcond.not.i = icmp eq i64 %indvars.iv.next.i, 4
  br i1 %exitcond.not.i, label %37, label %30, !llvm.loop !14

37:                                               ; preds = %30
  %38 = getelementptr inbounds i8, ptr %.01519.i, i64 %6
  %39 = add nuw nsw i32 %.01618.i, 1
  %exitcond21.not.i = icmp eq i32 %39, 4
  br i1 %exitcond21.not.i, label %ff_h264_idct_dc_add_8_c.exit, label %.preheader.i, !llvm.loop !15

ff_h264_idct_dc_add_8_c.exit:                     ; preds = %37, %13, %19
  %indvars.iv.next = add nuw nsw i64 %indvars.iv, 1
  %exitcond.not = icmp eq i64 %indvars.iv.next, 16
  br i1 %exitcond.not, label %40, label %7, !llvm.loop !21

40:                                               ; preds = %ff_h264_idct_dc_add_8_c.exit
  ret void
}